; Function Attrs: mustprogress uwtable
define noundef range(i32 -1, 1) i32 @_ZN3zmq14session_base_t8pull_msgEPNS_5msg_tE(ptr noundef nonnull align 8 captures(none) dereferenceable(1624) %0, ptr noundef %1) unnamed_addr #0 align 2 {
  %3 = getelementptr inbounds nuw i8, ptr %0, i64 1480
  %4 = load ptr, ptr %3, align 8, !tbaa !101
  %.not = icmp eq ptr %4, null
  br i1 %.not, label %7, label %5

5:                                                ; preds = %2
  %6 = tail call noundef zeroext i1 @_ZN3zmq6pipe_t4readEPNS_5msg_tE(ptr noundef nonnull align 8 dereferenceable(328) %4, ptr noundef %1)
  br i1 %6, label %9, label %7

7:                                                ; preds = %5, %2
  %8 = tail call ptr @__errno_location() #26
  store i32 11, ptr %8, align 4, !tbaa !51
  br label %13

9:                                                ; preds = %5
  %10 = tail call noundef zeroext i8 @_ZNK3zmq5msg_t5flagsEv(ptr noundef nonnull align 8 dereferenceable(64) %1)
  %11 = and i8 %10, 1
  %12 = getelementptr inbounds nuw i8, ptr %0, i64 1544
  store i8 %11, ptr %12, align 8, !tbaa !89
  br label %13

13:                                               ; preds = %9, %7
  %.0 = phi i32 [ 0, %9 ], [ -1, %7 ]
  ret i32 %.0
}